target datalayout = "e-m:e-p270:32:32-p271:32:32-p272:64:64-i64:64-i128:128-f80:128-n8:16:32:64-S128"
target triple = "x86_64-pc-linux-gnu"

%struct.KDF_SSHKDF = type { ptr, %struct.PROV_DIGEST, ptr, i64, ptr, i64, i8, ptr, i64 }
%struct.PROV_DIGEST = type { ptr, ptr, ptr }

@.str = private unnamed_addr constant [51 x i8] c"../openssl/providers/implementations/kdfs/sshkdf.c\00", align 1
@__func__.kdf_sshkdf_derive = private unnamed_addr constant [18 x i8] c"kdf_sshkdf_derive\00", align 1

; Function Attrs: nounwind uwtable
define internal i32 @SSHKDF(ptr noundef %0, ptr noundef %1, i64 noundef %2, ptr noundef %3, i64 noundef %4, ptr noundef %5, i64 noundef %6, i8 noundef signext %7, ptr noundef %8, i64 noundef %9) #0 {
  %11 = alloca i32, align 4
  %12 = alloca ptr, align 8
  %13 = alloca ptr, align 8
  %14 = alloca i64, align 8
  %15 = alloca ptr, align 8
  %16 = alloca i64, align 8
  %17 = alloca ptr, align 8
  %18 = alloca i64, align 8
  %19 = alloca i8, align 1
  %20 = alloca ptr, align 8
  %21 = alloca i64, align 8
  %22 = alloca ptr, align 8
  %23 = alloca [64 x i8], align 16
  %24 = alloca i32, align 4
  %25 = alloca i64, align 8
  %26 = alloca i32, align 4
  %27 = alloca i32, align 4
  store ptr %0, ptr %12, align 8, !tbaa !25
  store ptr %1, ptr %13, align 8, !tbaa !21
  store i64 %2, ptr %14, align 8, !tbaa !22
  store ptr %3, ptr %15, align 8, !tbaa !21
  store i64 %4, ptr %16, align 8, !tbaa !22
  store ptr %5, ptr %17, align 8, !tbaa !21
  store i64 %6, ptr %18, align 8, !tbaa !22
  store i8 %7, ptr %19, align 1, !tbaa !31
  store ptr %8, ptr %20, align 8, !tbaa !21
  store i64 %9, ptr %21, align 8, !tbaa !22
  call void @llvm.lifetime.start.p0(i64 8, ptr %22) #6
  store ptr null, ptr %22, align 8, !tbaa !32
  call void @llvm.lifetime.start.p0(i64 64, ptr %23) #6
  call void @llvm.lifetime.start.p0(i64 4, ptr %24) #6
  store i32 0, ptr %24, align 4, !tbaa !34
  call void @llvm.lifetime.start.p0(i64 8, ptr %25) #6
  store i64 0, ptr %25, align 8, !tbaa !22
  call void @llvm.lifetime.start.p0(i64 4, ptr %26) #6
  store i32 0, ptr %26, align 4, !tbaa !34
  %28 = call ptr @EVP_MD_CTX_new()
  store ptr %28, ptr %22, align 8, !tbaa !32
  %29 = load ptr, ptr %22, align 8, !tbaa !32
  %30 = icmp eq ptr %29, null
  br i1 %30, label %31, label %32

31:                                               ; preds = %10
  store i32 0, ptr %11, align 4
  store i32 1, ptr %27, align 4
  br label %155

32:                                               ; preds = %10
  %33 = load ptr, ptr %22, align 8, !tbaa !32
  %34 = load ptr, ptr %12, align 8, !tbaa !25
  %35 = call i32 @EVP_DigestInit_ex(ptr noundef %33, ptr noundef %34, ptr noundef null)
  %36 = icmp ne i32 %35, 0
  br i1 %36, label %38, label %37

37:                                               ; preds = %32
  br label %151

38:                                               ; preds = %32
  %39 = load ptr, ptr %22, align 8, !tbaa !32
  %40 = load ptr, ptr %13, align 8, !tbaa !21
  %41 = load i64, ptr %14, align 8, !tbaa !22
  %42 = call i32 @EVP_DigestUpdate(ptr noundef %39, ptr noundef %40, i64 noundef %41)
  %43 = icmp ne i32 %42, 0
  br i1 %43, label %45, label %44

44:                                               ; preds = %38
  br label %151

45:                                               ; preds = %38
  %46 = load ptr, ptr %22, align 8, !tbaa !32
  %47 = load ptr, ptr %15, align 8, !tbaa !21
  %48 = load i64, ptr %16, align 8, !tbaa !22
  %49 = call i32 @EVP_DigestUpdate(ptr noundef %46, ptr noundef %47, i64 noundef %48)
  %50 = icmp ne i32 %49, 0
  br i1 %50, label %52, label %51

51:                                               ; preds = %45
  br label %151

52:                                               ; preds = %45
  %53 = load ptr, ptr %22, align 8, !tbaa !32
  %54 = call i32 @EVP_DigestUpdate(ptr noundef %53, ptr noundef %19, i64 noundef 1)
  %55 = icmp ne i32 %54, 0
  br i1 %55, label %57, label %56

56:                                               ; preds = %52
  br label %151

57:                                               ; preds = %52
  %58 = load ptr, ptr %22, align 8, !tbaa !32
  %59 = load ptr, ptr %17, align 8, !tbaa !21
  %60 = load i64, ptr %18, align 8, !tbaa !22
  %61 = call i32 @EVP_DigestUpdate(ptr noundef %58, ptr noundef %59, i64 noundef %60)
  %62 = icmp ne i32 %61, 0
  br i1 %62, label %64, label %63

63:                                               ; preds = %57
  br label %151

64:                                               ; preds = %57
  %65 = load ptr, ptr %22, align 8, !tbaa !32
  %66 = getelementptr inbounds [64 x i8], ptr %23, i64 0, i64 0
  %67 = call i32 @EVP_DigestFinal_ex(ptr noundef %65, ptr noundef %66, ptr noundef %24)
  %68 = icmp ne i32 %67, 0
  br i1 %68, label %70, label %69

69:                                               ; preds = %64
  br label %151

70:                                               ; preds = %64
  %71 = load i64, ptr %21, align 8, !tbaa !22
  %72 = load i32, ptr %24, align 4, !tbaa !34
  %73 = zext i32 %72 to i64
  %74 = icmp ult i64 %71, %73
  br i1 %74, label %75, label %79

75:                                               ; preds = %70
  %76 = load ptr, ptr %20, align 8, !tbaa !21
  %77 = getelementptr inbounds [64 x i8], ptr %23, i64 0, i64 0
  %78 = load i64, ptr %21, align 8, !tbaa !22
  call void @llvm.memcpy.p0.p0.i64(ptr align 1 %76, ptr align 16 %77, i64 %78, i1 false)
  store i32 1, ptr %26, align 4, !tbaa !34
  br label %151

79:                                               ; preds = %70
  %80 = load ptr, ptr %20, align 8, !tbaa !21
  %81 = getelementptr inbounds [64 x i8], ptr %23, i64 0, i64 0
  %82 = load i32, ptr %24, align 4, !tbaa !34
  %83 = zext i32 %82 to i64
  call void @llvm.memcpy.p0.p0.i64(ptr align 1 %80, ptr align 16 %81, i64 %83, i1 false)
  %84 = load i32, ptr %24, align 4, !tbaa !34
  %85 = zext i32 %84 to i64
  store i64 %85, ptr %25, align 8, !tbaa !22
  br label %86

86:                                               ; preds = %145, %79
  %87 = load i64, ptr %25, align 8, !tbaa !22
  %88 = load i64, ptr %21, align 8, !tbaa !22
  %89 = icmp ult i64 %87, %88
  br i1 %89, label %90, label %150

90:                                               ; preds = %86
  %91 = load ptr, ptr %22, align 8, !tbaa !32
  %92 = load ptr, ptr %12, align 8, !tbaa !25
  %93 = call i32 @EVP_DigestInit_ex(ptr noundef %91, ptr noundef %92, ptr noundef null)
  %94 = icmp ne i32 %93, 0
  br i1 %94, label %96, label %95

95:                                               ; preds = %90
  br label %151

96:                                               ; preds = %90
  %97 = load ptr, ptr %22, align 8, !tbaa !32
  %98 = load ptr, ptr %13, align 8, !tbaa !21
  %99 = load i64, ptr %14, align 8, !tbaa !22
  %100 = call i32 @EVP_DigestUpdate(ptr noundef %97, ptr noundef %98, i64 noundef %99)
  %101 = icmp ne i32 %100, 0
  br i1 %101, label %103, label %102

102:                                              ; preds = %96
  br label %151

103:                                              ; preds = %96
  %104 = load ptr, ptr %22, align 8, !tbaa !32
  %105 = load ptr, ptr %15, align 8, !tbaa !21
  %106 = load i64, ptr %16, align 8, !tbaa !22
  %107 = call i32 @EVP_DigestUpdate(ptr noundef %104, ptr noundef %105, i64 noundef %106)
  %108 = icmp ne i32 %107, 0
  br i1 %108, label %110, label %109

109:                                              ; preds = %103
  br label %151

110:                                              ; preds = %103
  %111 = load ptr, ptr %22, align 8, !tbaa !32
  %112 = load ptr, ptr %20, align 8, !tbaa !21
  %113 = load i64, ptr %25, align 8, !tbaa !22
  %114 = call i32 @EVP_DigestUpdate(ptr noundef %111, ptr noundef %112, i64 noundef %113)
  %115 = icmp ne i32 %114, 0
  br i1 %115, label %117, label %116

116:                                              ; preds = %110
  br label %151

117:                                              ; preds = %110
  %118 = load ptr, ptr %22, align 8, !tbaa !32
  %119 = getelementptr inbounds [64 x i8], ptr %23, i64 0, i64 0
  %120 = call i32 @EVP_DigestFinal_ex(ptr noundef %118, ptr noundef %119, ptr noundef %24)
  %121 = icmp ne i32 %120, 0
  br i1 %121, label %123, label %122

122:                                              ; preds = %117
  br label %151

123:                                              ; preds = %117
  %124 = load i64, ptr %21, align 8, !tbaa !22
  %125 = load i64, ptr %25, align 8, !tbaa !22
  %126 = load i32, ptr %24, align 4, !tbaa !34
  %127 = zext i32 %126 to i64
  %128 = add i64 %125, %127
  %129 = icmp ult i64 %124, %128
  br i1 %129, label %130, label %138

130:                                              ; preds = %123
  %131 = load ptr, ptr %20, align 8, !tbaa !21
  %132 = load i64, ptr %25, align 8, !tbaa !22
  %133 = getelementptr inbounds nuw i8, ptr %131, i64 %132
  %134 = getelementptr inbounds [64 x i8], ptr %23, i64 0, i64 0
  %135 = load i64, ptr %21, align 8, !tbaa !22
  %136 = load i64, ptr %25, align 8, !tbaa !22
  %137 = sub i64 %135, %136
  call void @llvm.memcpy.p0.p0.i64(ptr align 1 %133, ptr align 16 %134, i64 %137, i1 false)
  store i32 1, ptr %26, align 4, !tbaa !34
  br label %151

138:                                              ; preds = %123
  %139 = load ptr, ptr %20, align 8, !tbaa !21
  %140 = load i64, ptr %25, align 8, !tbaa !22
  %141 = getelementptr inbounds nuw i8, ptr %139, i64 %140
  %142 = getelementptr inbounds [64 x i8], ptr %23, i64 0, i64 0
  %143 = load i32, ptr %24, align 4, !tbaa !34
  %144 = zext i32 %143 to i64
  call void @llvm.memcpy.p0.p0.i64(ptr align 1 %141, ptr align 16 %142, i64 %144, i1 false)
  br label %145

145:                                              ; preds = %138
  %146 = load i32, ptr %24, align 4, !tbaa !34
  %147 = zext i32 %146 to i64
  %148 = load i64, ptr %25, align 8, !tbaa !22
  %149 = add i64 %148, %147
  store i64 %149, ptr %25, align 8, !tbaa !22
  br label %86, !llvm.loop !35

150:                                              ; preds = %86
  store i32 1, ptr %26, align 4, !tbaa !34
  br label %151

151:                                              ; preds = %150, %130, %122, %116, %109, %102, %95, %75, %69, %63, %56, %51, %44, %37
  %152 = load ptr, ptr %22, align 8, !tbaa !32
  call void @EVP_MD_CTX_free(ptr noundef %152)
  %153 = getelementptr inbounds [64 x i8], ptr %23, i64 0, i64 0
  call void @OPENSSL_cleanse(ptr noundef %153, i64 noundef 64)
  %154 = load i32, ptr %26, align 4, !tbaa !34
  store i32 %154, ptr %11, align 4
  store i32 1, ptr %27, align 4
  br label %155

155:                                              ; preds = %151, %31
  call void @llvm.lifetime.end.p0(i64 4, ptr %26) #6
  call void @llvm.lifetime.end.p0(i64 8, ptr %25) #6
  call void @llvm.lifetime.end.p0(i64 4, ptr %24) #6
  call void @llvm.lifetime.end.p0(i64 64, ptr %23) #6
  call void @llvm.lifetime.end.p0(i64 8, ptr %22) #6
  %156 = load i32, ptr %11, align 4
  ret i32 %156
}

; Function Attrs: nounwind uwtable
define internal i32 @kdf_sshkdf_derive(ptr noundef %0, ptr noundef %1, i64 noundef %2, ptr noundef %3) #0 {
  %5 = alloca i32, align 4
  %6 = alloca ptr, align 8
  %7 = alloca ptr, align 8
  %8 = alloca i64, align 8
  %9 = alloca ptr, align 8
  %10 = alloca ptr, align 8
  %11 = alloca ptr, align 8
  %12 = alloca i32, align 4
  store ptr %0, ptr %6, align 8, !tbaa !3
  store ptr %1, ptr %7, align 8, !tbaa !21
  store i64 %2, ptr %8, align 8, !tbaa !22
  store ptr %3, ptr %9, align 8, !tbaa !23
  call void @llvm.lifetime.start.p0(i64 8, ptr %10) #6
  %13 = load ptr, ptr %6, align 8, !tbaa !3
  store ptr %13, ptr %10, align 8, !tbaa !3
  call void @llvm.lifetime.start.p0(i64 8, ptr %11) #6
  %14 = call i32 @ossl_prov_is_running()
  %15 = icmp ne i32 %14, 0
  br i1 %15, label %16, label %21

16:                                               ; preds = %4
  %17 = load ptr, ptr %10, align 8, !tbaa !3
  %18 = load ptr, ptr %9, align 8, !tbaa !23
  %19 = call i32 @kdf_sshkdf_set_ctx_params(ptr noundef %17, ptr noundef %18)
  %20 = icmp ne i32 %19, 0
  br i1 %20, label %22, label %21

21:                                               ; preds = %16, %4
  store i32 0, ptr %5, align 4
  store i32 1, ptr %12, align 4
  br label %80

22:                                               ; preds = %16
  %23 = load ptr, ptr %10, align 8, !tbaa !3
  %24 = getelementptr inbounds nuw %struct.KDF_SSHKDF, ptr %23, i32 0, i32 1
  %25 = call ptr @ossl_prov_digest_md(ptr noundef %24)
  store ptr %25, ptr %11, align 8, !tbaa !25
  %26 = load ptr, ptr %11, align 8, !tbaa !25
  %27 = icmp eq ptr %26, null
  br i1 %27, label %28, label %29

28:                                               ; preds = %22
  call void @ERR_new()
  call void @ERR_set_debug(ptr noundef @.str, i32 noundef 183, ptr noundef @__func__.kdf_sshkdf_derive)
  call void (i32, i32, ptr, ...) @ERR_set_error(i32 noundef 57, i32 noundef 129, ptr noundef null)
  store i32 0, ptr %5, align 4
  store i32 1, ptr %12, align 4
  br label %80

29:                                               ; preds = %22
  %30 = load ptr, ptr %10, align 8, !tbaa !3
  %31 = getelementptr inbounds nuw %struct.KDF_SSHKDF, ptr %30, i32 0, i32 2
  %32 = load ptr, ptr %31, align 8, !tbaa !14
  %33 = icmp eq ptr %32, null
  br i1 %33, label %34, label %35

34:                                               ; preds = %29
  call void @ERR_new()
  call void @ERR_set_debug(ptr noundef @.str, i32 noundef 187, ptr noundef @__func__.kdf_sshkdf_derive)
  call void (i32, i32, ptr, ...) @ERR_set_error(i32 noundef 57, i32 noundef 128, ptr noundef null)
  store i32 0, ptr %5, align 4
  store i32 1, ptr %12, align 4
  br label %80

35:                                               ; preds = %29
  %36 = load ptr, ptr %10, align 8, !tbaa !3
  %37 = getelementptr inbounds nuw %struct.KDF_SSHKDF, ptr %36, i32 0, i32 4
  %38 = load ptr, ptr %37, align 8, !tbaa !16
  %39 = icmp eq ptr %38, null
  br i1 %39, label %40, label %41

40:                                               ; preds = %35
  call void @ERR_new()
  call void @ERR_set_debug(ptr noundef @.str, i32 noundef 191, ptr noundef @__func__.kdf_sshkdf_derive)
  call void (i32, i32, ptr, ...) @ERR_set_error(i32 noundef 57, i32 noundef 135, ptr noundef null)
  store i32 0, ptr %5, align 4
  store i32 1, ptr %12, align 4
  br label %80

41:                                               ; preds = %35
  %42 = load ptr, ptr %10, align 8, !tbaa !3
  %43 = getelementptr inbounds nuw %struct.KDF_SSHKDF, ptr %42, i32 0, i32 7
  %44 = load ptr, ptr %43, align 8, !tbaa !18
  %45 = icmp eq ptr %44, null
  br i1 %45, label %46, label %47

46:                                               ; preds = %41
  call void @ERR_new()
  call void @ERR_set_debug(ptr noundef @.str, i32 noundef 195, ptr noundef @__func__.kdf_sshkdf_derive)
  call void (i32, i32, ptr, ...) @ERR_set_error(i32 noundef 57, i32 noundef 133, ptr noundef null)
  store i32 0, ptr %5, align 4
  store i32 1, ptr %12, align 4
  br label %80

47:                                               ; preds = %41
  %48 = load ptr, ptr %10, align 8, !tbaa !3
  %49 = getelementptr inbounds nuw %struct.KDF_SSHKDF, ptr %48, i32 0, i32 6
  %50 = load i8, ptr %49, align 8, !tbaa !20
  %51 = sext i8 %50 to i32
  %52 = icmp eq i32 %51, 0
  br i1 %52, label %53, label %54

53:                                               ; preds = %47
  call void @ERR_new()
  call void @ERR_set_debug(ptr noundef @.str, i32 noundef 199, ptr noundef @__func__.kdf_sshkdf_derive)
  call void (i32, i32, ptr, ...) @ERR_set_error(i32 noundef 57, i32 noundef 134, ptr noundef null)
  store i32 0, ptr %5, align 4
  store i32 1, ptr %12, align 4
  br label %80

54:                                               ; preds = %47
  %55 = load ptr, ptr %11, align 8, !tbaa !25
  %56 = load ptr, ptr %10, align 8, !tbaa !3
  %57 = getelementptr inbounds nuw %struct.KDF_SSHKDF, ptr %56, i32 0, i32 2
  %58 = load ptr, ptr %57, align 8, !tbaa !14
  %59 = load ptr, ptr %10, align 8, !tbaa !3
  %60 = getelementptr inbounds nuw %struct.KDF_SSHKDF, ptr %59, i32 0, i32 3
  %61 = load i64, ptr %60, align 8, !tbaa !15
  %62 = load ptr, ptr %10, align 8, !tbaa !3
  %63 = getelementptr inbounds nuw %struct.KDF_SSHKDF, ptr %62, i32 0, i32 4
  %64 = load ptr, ptr %63, align 8, !tbaa !16
  %65 = load ptr, ptr %10, align 8, !tbaa !3
  %66 = getelementptr inbounds nuw %struct.KDF_SSHKDF, ptr %65, i32 0, i32 5
  %67 = load i64, ptr %66, align 8, !tbaa !17
  %68 = load ptr, ptr %10, align 8, !tbaa !3
  %69 = getelementptr inbounds nuw %struct.KDF_SSHKDF, ptr %68, i32 0, i32 7
  %70 = load ptr, ptr %69, align 8, !tbaa !18
  %71 = load ptr, ptr %10, align 8, !tbaa !3
  %72 = getelementptr inbounds nuw %struct.KDF_SSHKDF, ptr %71, i32 0, i32 8
  %73 = load i64, ptr %72, align 8, !tbaa !19
  %74 = load ptr, ptr %10, align 8, !tbaa !3
  %75 = getelementptr inbounds nuw %struct.KDF_SSHKDF, ptr %74, i32 0, i32 6
  %76 = load i8, ptr %75, align 8, !tbaa !20
  %77 = load ptr, ptr %7, align 8, !tbaa !21
  %78 = load i64, ptr %8, align 8, !tbaa !22
  %79 = call i32 @SSHKDF(ptr noundef %55, ptr noundef %58, i64 noundef %61, ptr noundef %64, i64 noundef %67, ptr noundef %70, i64 noundef %73, i8 noundef signext %76, ptr noundef %77, i64 noundef %78)
  store i32 %79, ptr %5, align 4
  store i32 1, ptr %12, align 4
  br label %80

80:                                               ; preds = %54, %53, %46, %40, %34, %28, %21
  call void @llvm.lifetime.end.p0(i64 8, ptr %11) #6
  call void @llvm.lifetime.end.p0(i64 8, ptr %10) #6
  %81 = load i32, ptr %5, align 4
  ret i32 %81
}