; Function Attrs: nounwind uwtable
define internal range(i32 0, 2) i32 @kdf_sshkdf_derive(ptr noundef %0, ptr noundef %1, i64 noundef %2, ptr noundef %3) #0 {
  %5 = alloca i8, align 1
  %6 = alloca [64 x i8], align 16
  %7 = alloca i32, align 4
  %8 = tail call i32 @ossl_prov_is_running() #6
  %.not = icmp eq i32 %8, 0
  br i1 %.not, label %83, label %9

9:                                                ; preds = %4
  %10 = tail call i32 @kdf_sshkdf_set_ctx_params(ptr noundef %0, ptr noundef %3)
  %.not23 = icmp eq i32 %10, 0
  br i1 %.not23, label %83, label %11

11:                                               ; preds = %9
  %12 = getelementptr inbounds nuw i8, ptr %0, i64 8
  %13 = tail call ptr @ossl_prov_digest_md(ptr noundef nonnull %12) #6
  %14 = icmp eq ptr %13, null
  br i1 %14, label %15, label %16

15:                                               ; preds = %11
  tail call void @ERR_new() #6
  tail call void @ERR_set_debug(ptr noundef nonnull @.str, i32 noundef 183, ptr noundef nonnull @__func__.kdf_sshkdf_derive) #6
  tail call void (i32, i32, ptr, ...) @ERR_set_error(i32 noundef 57, i32 noundef 129, ptr noundef null) #6
  br label %83

16:                                               ; preds = %11
  %17 = getelementptr inbounds nuw i8, ptr %0, i64 32
  %18 = load ptr, ptr %17, align 8, !tbaa !13
  %19 = icmp eq ptr %18, null
  br i1 %19, label %20, label %21

20:                                               ; preds = %16
  tail call void @ERR_new() #6
  tail call void @ERR_set_debug(ptr noundef nonnull @.str, i32 noundef 187, ptr noundef nonnull @__func__.kdf_sshkdf_derive) #6
  tail call void (i32, i32, ptr, ...) @ERR_set_error(i32 noundef 57, i32 noundef 128, ptr noundef null) #6
  br label %83

21:                                               ; preds = %16
  %22 = getelementptr inbounds nuw i8, ptr %0, i64 48
  %23 = load ptr, ptr %22, align 8, !tbaa !15
  %24 = icmp eq ptr %23, null
  br i1 %24, label %25, label %26

25:                                               ; preds = %21
  tail call void @ERR_new() #6
  tail call void @ERR_set_debug(ptr noundef nonnull @.str, i32 noundef 191, ptr noundef nonnull @__func__.kdf_sshkdf_derive) #6
  tail call void (i32, i32, ptr, ...) @ERR_set_error(i32 noundef 57, i32 noundef 135, ptr noundef null) #6
  br label %83

26:                                               ; preds = %21
  %27 = getelementptr inbounds nuw i8, ptr %0, i64 72
  %28 = load ptr, ptr %27, align 8, !tbaa !17
  %29 = icmp eq ptr %28, null
  br i1 %29, label %30, label %31

30:                                               ; preds = %26
  tail call void @ERR_new() #6
  tail call void @ERR_set_debug(ptr noundef nonnull @.str, i32 noundef 195, ptr noundef nonnull @__func__.kdf_sshkdf_derive) #6
  tail call void (i32, i32, ptr, ...) @ERR_set_error(i32 noundef 57, i32 noundef 133, ptr noundef null) #6
  br label %83

31:                                               ; preds = %26
  %32 = getelementptr inbounds nuw i8, ptr %0, i64 64
  %33 = load i8, ptr %32, align 8, !tbaa !19
  %34 = icmp eq i8 %33, 0
  br i1 %34, label %35, label %36

35:                                               ; preds = %31
  tail call void @ERR_new() #6
  tail call void @ERR_set_debug(ptr noundef nonnull @.str, i32 noundef 199, ptr noundef nonnull @__func__.kdf_sshkdf_derive) #6
  tail call void (i32, i32, ptr, ...) @ERR_set_error(i32 noundef 57, i32 noundef 134, ptr noundef null) #6
  br label %83

36:                                               ; preds = %31
  %37 = getelementptr inbounds nuw i8, ptr %0, i64 40
  %38 = load i64, ptr %37, align 8, !tbaa !14
  %39 = getelementptr inbounds nuw i8, ptr %0, i64 56
  %40 = load i64, ptr %39, align 8, !tbaa !16
  %41 = getelementptr inbounds nuw i8, ptr %0, i64 80
  %42 = load i64, ptr %41, align 8, !tbaa !18
  call void @llvm.lifetime.start.p0(i64 1, ptr nonnull %5)
  store i8 %33, ptr %5, align 1, !tbaa !20
  call void @llvm.lifetime.start.p0(i64 64, ptr nonnull %6) #6
  call void @llvm.lifetime.start.p0(i64 4, ptr nonnull %7) #6
  store i32 0, ptr %7, align 4, !tbaa !21
  %43 = tail call ptr @EVP_MD_CTX_new() #6
  %44 = icmp eq ptr %43, null
  br i1 %44, label %SSHKDF.exit, label %45

45:                                               ; preds = %36
  %46 = tail call i32 @EVP_DigestInit_ex(ptr noundef nonnull %43, ptr noundef nonnull %13, ptr noundef null) #6
  %.not.i = icmp eq i32 %46, 0
  br i1 %.not.i, label %.loopexit.i, label %47

47:                                               ; preds = %45
  %48 = tail call i32 @EVP_DigestUpdate(ptr noundef nonnull %43, ptr noundef nonnull %18, i64 noundef %38) #6
  %.not48.i = icmp eq i32 %48, 0
  br i1 %.not48.i, label %.loopexit.i, label %49

49:                                               ; preds = %47
  %50 = tail call i32 @EVP_DigestUpdate(ptr noundef nonnull %43, ptr noundef nonnull %23, i64 noundef %40) #6
  %.not49.i = icmp eq i32 %50, 0
  br i1 %.not49.i, label %.loopexit.i, label %51

51:                                               ; preds = %49
  %52 = call i32 @EVP_DigestUpdate(ptr noundef nonnull %43, ptr noundef nonnull %5, i64 noundef 1) #6
  %.not50.i = icmp eq i32 %52, 0
  br i1 %.not50.i, label %.loopexit.i, label %53

53:                                               ; preds = %51
  %54 = call i32 @EVP_DigestUpdate(ptr noundef nonnull %43, ptr noundef nonnull %28, i64 noundef %42) #6
  %.not51.i = icmp eq i32 %54, 0
  br i1 %.not51.i, label %.loopexit.i, label %55

55:                                               ; preds = %53
  %56 = call i32 @EVP_DigestFinal_ex(ptr noundef nonnull %43, ptr noundef nonnull %6, ptr noundef nonnull %7) #6
  %.not52.i = icmp eq i32 %56, 0
  br i1 %.not52.i, label %.loopexit.i, label %57

57:                                               ; preds = %55
  %58 = load i32, ptr %7, align 4, !tbaa !21
  %59 = zext i32 %58 to i64
  %60 = icmp ult i64 %2, %59
  br i1 %60, label %61, label %62

61:                                               ; preds = %57
  call void @llvm.memcpy.p0.p0.i64(ptr align 1 %1, ptr nonnull align 16 %6, i64 %2, i1 false)
  br label %.loopexit.i

62:                                               ; preds = %57
  call void @llvm.memcpy.p0.p0.i64(ptr align 1 %1, ptr nonnull align 16 %6, i64 %59, i1 false)
  %63 = icmp ugt i64 %2, %59
  br i1 %63, label %.lr.ph.i, label %.loopexit.i

.lr.ph.i:                                         ; preds = %62, %81
  %.04359.i = phi i64 [ %76, %81 ], [ %59, %62 ]
  %64 = call i32 @EVP_DigestInit_ex(ptr noundef nonnull %43, ptr noundef nonnull %13, ptr noundef null) #6
  %.not53.i = icmp eq i32 %64, 0
  br i1 %.not53.i, label %.loopexit.i, label %65

65:                                               ; preds = %.lr.ph.i
  %66 = call i32 @EVP_DigestUpdate(ptr noundef nonnull %43, ptr noundef nonnull %18, i64 noundef %38) #6
  %.not54.i = icmp eq i32 %66, 0
  br i1 %.not54.i, label %.loopexit.i, label %67

67:                                               ; preds = %65
  %68 = call i32 @EVP_DigestUpdate(ptr noundef nonnull %43, ptr noundef nonnull %23, i64 noundef %40) #6
  %.not55.i = icmp eq i32 %68, 0
  br i1 %.not55.i, label %.loopexit.i, label %69

69:                                               ; preds = %67
  %70 = call i32 @EVP_DigestUpdate(ptr noundef nonnull %43, ptr noundef %1, i64 noundef %.04359.i) #6
  %.not56.i = icmp eq i32 %70, 0
  br i1 %.not56.i, label %.loopexit.i, label %71

71:                                               ; preds = %69
  %72 = call i32 @EVP_DigestFinal_ex(ptr noundef nonnull %43, ptr noundef nonnull %6, ptr noundef nonnull %7) #6
  %.not57.i = icmp eq i32 %72, 0
  br i1 %.not57.i, label %.loopexit.i, label %73

73:                                               ; preds = %71
  %74 = load i32, ptr %7, align 4, !tbaa !21
  %75 = zext i32 %74 to i64
  %76 = add i64 %.04359.i, %75
  %77 = icmp ult i64 %2, %76
  %78 = getelementptr inbounds nuw i8, ptr %1, i64 %.04359.i
  br i1 %77, label %79, label %81

79:                                               ; preds = %73
  %80 = sub i64 %2, %.04359.i
  call void @llvm.memcpy.p0.p0.i64(ptr align 1 %78, ptr nonnull align 16 %6, i64 %80, i1 false)
  br label %.loopexit.i

81:                                               ; preds = %73
  call void @llvm.memcpy.p0.p0.i64(ptr align 1 %78, ptr nonnull align 16 %6, i64 %75, i1 false)
  %82 = icmp ult i64 %76, %2
  br i1 %82, label %.lr.ph.i, label %.loopexit.i, !llvm.loop !23

.loopexit.i:                                      ; preds = %81, %71, %69, %67, %65, %.lr.ph.i, %79, %62, %61, %55, %53, %51, %49, %47, %45
  %.0.i = phi i32 [ 1, %61 ], [ 1, %79 ], [ 0, %55 ], [ 0, %53 ], [ 0, %51 ], [ 0, %49 ], [ 0, %47 ], [ 0, %45 ], [ 1, %62 ], [ 1, %81 ], [ 0, %71 ], [ 0, %69 ], [ 0, %67 ], [ 0, %65 ], [ 0, %.lr.ph.i ]
  call void @EVP_MD_CTX_free(ptr noundef nonnull %43) #6
  call void @OPENSSL_cleanse(ptr noundef nonnull %6, i64 noundef 64) #6
  br label %SSHKDF.exit

SSHKDF.exit:                                      ; preds = %36, %.loopexit.i
  %.044.i = phi i32 [ %.0.i, %.loopexit.i ], [ 0, %36 ]
  call void @llvm.lifetime.end.p0(i64 4, ptr nonnull %7) #6
  call void @llvm.lifetime.end.p0(i64 64, ptr nonnull %6) #6
  call void @llvm.lifetime.end.p0(i64 1, ptr nonnull %5)
  br label %83

83:                                               ; preds = %4, %9, %SSHKDF.exit, %35, %30, %25, %20, %15
  %.0 = phi i32 [ 0, %15 ], [ 0, %20 ], [ 0, %25 ], [ 0, %30 ], [ 0, %35 ], [ %.044.i, %SSHKDF.exit ], [ 0, %9 ], [ 0, %4 ]
  ret i32 %.0
}